(dp0
S'great'
p1
(dp2
I0
(dp3
S'well'
p4
(dp5
I0
(dp6
S'doesn'
p7
(dp8
I0
(dp9
S'man'
p10
(dp11
I0
(dp12
S'bad'
p13
(dp14
I0
(dp15
S'movies'
p16
(dp17
I0
(dp18
S'character'
p19
(dp20
I0
S'pos'
p21
sI1
(dp22
S'characters'
p23
(dp24
I0
g21
sI1
S'neg'
p25
sssssI1
g25
sssI1
g25
sssI1
(dp26
S'best'
p27
(dp28
I0
(dp29
S'will'
p30
(dp31
I0
(dp32
S'film'
p33
(dp34
I0
(dp35
S'time'
p36
(dp37
I0
(dp38
S'director'
p39
(dp40
I0
g25
sI1
g21
sssI1
g21
sssI1
g25
sssI1
(dp41
g33
(dp42
I0
g25
sI1
g21
sssssI1
g21
sssssI1
g25
sssI1
(dp43
S'action'
p44
(dp45
I0
(dp46
g16
(dp47
I0
(dp48
S'work'
p49
(dp50
I0
(dp51
g39
(dp52
I0
(dp53
g10
(dp54
I0
g21
sI1
(dp55
S'life'
p56
(dp57
I0
g21
sI1
g25
sssssI1
g25
sssI1
g21
sssI1
(dp58
g13
(dp59
I0
(dp60
S'don'
p61
(dp62
I0
(dp63
g56
(dp64
I0
g21
sI1
g25
sssI1
g21
sssI1
(dp65
S'scenes'
p66
(dp67
I0
g25
sI1
(dp68
g36
(dp69
I0
g25
sI1
g21
sssssssssI1
(dp70
g66
(dp71
I0
(dp72
g36
(dp73
I0
(dp74
S'people'
p75
(dp76
I0
g25
sI1
g21
sssI1
g25
sssI1
(dp77
S'films'
p78
(dp79
I0
g21
sI1
(dp80
g61
(dp81
I0
g25
sI1
(dp82
g30
(dp83
I0
g25
sI1
g21
sssssssssssssI1
(dp84
g10
(dp85
I0
(dp86
g33
(dp87
I0
g21
sI1
(dp88
g56
(dp89
I0
(dp90
S'plot'
p91
(dp92
I0
(dp93
g36
(dp94
I0
(dp95
S'scene'
p96
(dp97
I0
g25
sI1
(dp98
g27
(dp99
I0
g25
sI1
g21
sssssI1
(dp100
g44
(dp101
I0
g21
sI1
g25
sssssI1
(dp102
g36
(dp103
I0
(dp104
g49
(dp105
I0
g25
sI1
g21
sssI1
g25
sssssI1
(dp106
g4
(dp107
I0
(dp108
g19
(dp109
I0
g25
sI1
g21
sssI1
(dp110
g39
(dp111
I0
g21
sI1
(dp112
g27
(dp113
I0
g25
sI1
g21
sssssssssssI1
(dp114
g23
(dp115
I0
g21
sI1
(dp116
g36
(dp117
I0
g25
sI1
(dp118
g61
(dp119
I0
g21
sI1
(dp120
g13
(dp121
I0
g21
sI1
g25
ssssssssssss.