(dp0
S'bad'
p1
(dp2
I0
(dp3
S'worst'
p4
(dp5
I0
(dp6
S'memorable'
p7
(dp8
I0
(dp9
S'performances'
p10
(dp11
I0
(dp12
S'excellent'
p13
(dp14
I0
(dp15
S'images'
p16
(dp17
I0
(dp18
S'terrific'
p19
(dp20
I0
(dp21
S'catch'
p22
(dp23
I0
(dp24
S'effective'
p25
(dp26
I0
(dp27
S'easily'
p28
(dp29
I0
(dp30
S'deserves'
p31
(dp32
I0
(dp33
S'enjoyed'
p34
(dp35
I0
(dp36
S'hilarious'
p37
(dp38
I0
(dp39
S'death'
p40
(dp41
I0
(dp42
S'reason'
p43
(dp44
I0
(dp45
S'wasted'
p46
(dp47
I0
(dp48
S'entertaining'
p49
(dp50
I0
(dp51
S'slowly'
p52
(dp53
I0
(dp54
S'cheap'
p55
(dp56
I0
(dp57
S'flat'
p58
(dp59
I0
(dp60
S'family'
p61
(dp62
I0
(dp63
S'born'
p64
(dp65
I0
(dp66
S'today'
p67
(dp68
I0
(dp69
S'appears'
p70
(dp71
I0
(dp72
S'credits'
p73
(dp74
I0
(dp75
S'twenty'
p76
(dp77
I0
(dp78
S'style'
p79
(dp80
I0
(dp81
S'famous'
p82
(dp83
I0
(dp84
S'imagine'
p85
(dp86
I0
(dp87
S'power'
p88
(dp89
I0
(dp90
S'menace'
p91
(dp92
I0
(dp93
S'full'
p94
(dp95
I0
(dp96
S'year'
p97
(dp98
I0
(dp99
S'ability'
p100
(dp101
I0
(dp102
S'enjoyable'
p103
(dp104
I0
(dp105
S'money'
p106
(dp107
I0
(dp108
S'horrible'
p109
(dp110
I0
(dp111
S'fun'
p112
(dp113
I0
S'neg'
p114
sI1
(dp115
S'john'
p116
(dp117
I0
g114
sI1
(dp118
S'feeling'
p119
(dp120
I0
S'pos'
p121
sI1
g114
sssssssI1
g121
sssI1
(dp122
S'life'
p123
(dp124
I0
(dp125
S'concept'
p126
(dp127
I0
g121
sI1
g114
sssI1
g114
sssssI1
g121
sssI1
(dp128
S'kids'
p129
(dp130
I0
g121
sI1
g114
sssssI1
(dp131
S'hollywood'
p132
(dp133
I0
(dp134
S'studio'
p135
(dp136
I0
g121
sI1
g114
sssI1
g114
sssssI1
g114
sssI1
g121
sssI1
(dp137
S'poor'
p138
(dp139
I0
(dp140
S'comedy'
p141
(dp142
I0
g121
sI1
g114
sssI1
g114
sssssI1
g121
sssI1
g121
sssI1
g114
sssI1
(dp143
S'didn'
p144
(dp145
I0
g121
sI1
g114
sssssI1
g114
sssI1
g114
sssI1
(dp146
S'sense'
p147
(dp148
I0
g121
sI1
g114
sssssI1
g121
sssI1
(dp149
S'interesting'
p150
(dp151
I0
(dp152
S'plan'
p153
(dp154
I0
(dp155
S'blade'
p156
(dp157
I0
(dp158
S'thought'
p159
(dp160
I0
(dp161
S'occasionally'
p162
(dp163
I0
g121
sI1
g114
sssI1
g114
sssI1
g114
sssI1
g114
sssI1
g114
sssssI1
g114
sssI1
g114
sssI1
(dp164
S'wrong'
p165
(dp166
I0
g121
sI1
g114
sssssI1
(dp167
S'action'
p168
(dp169
I0
(dp170
S'tone'
p171
(dp172
I0
g121
sI1
g114
sssI1
g114
sssssI1
g114
sssI1
(dp173
S'game'
p174
(dp175
I0
(dp176
S'choice'
p177
(dp178
I0
(dp179
S'development'
p180
(dp181
I0
g114
sI1
g121
sssI1
(dp182
g129
(dp183
I0
g121
sI1
g114
sssssI1
(dp184
S'meets'
p185
(dp186
I0
g121
sI1
g114
sssssssI1
(dp187
S'michael'
p188
(dp189
I0
(dp190
S'role'
p191
(dp192
I0
(dp193
S'horror'
p194
(dp195
I0
(dp196
S'video'
p197
(dp198
I0
(dp199
S'crime'
p200
(dp201
I0
(dp202
S'involved'
p203
(dp204
I0
(dp205
S'voice'
p206
(dp207
I0
g121
sI1
(dp208
S'effects'
p209
(dp210
I0
g114
sI1
g121
sssssI1
g114
sssI1
g114
sssI1
g114
sssI1
g121
sssI1
g121
sssI1
g114
sssssI1
(dp211
g112
(dp212
I0
(dp213
S'won'
p214
(dp215
I0
(dp216
S'hand'
p217
(dp218
I0
(dp219
S'showing'
p220
(dp221
I0
g121
sI1
g114
sssI1
(dp222
S'performance'
p223
(dp224
I0
g114
sI1
g121
sssssI1
g114
sssI1
g121
sssssI1
(dp225
g194
(dp226
I0
g121
sI1
g114
sssssI1
(dp227
S'ground'
p228
(dp229
I0
(dp230
S'lead'
p231
(dp232
I0
g121
sI1
(dp233
g191
(dp234
I0
g114
sI1
g121
sssssI1
g114
sssssI1
(dp235
S'1998'
p236
(dp237
I0
(dp238
S'trailer'
p239
(dp240
I0
(dp241
S'women'
p242
(dp243
I0
(dp244
S'states'
p245
(dp246
I0
g121
sI1
g114
sssI1
(dp247
g116
(dp248
I0
g114
sI1
g121
sssssI1
g114
sssI1
g114
sssssI1
(dp249
S'earth'
p250
(dp251
I0
(dp252
S'mess'
p253
(dp254
I0
(dp255
S'sounds'
p256
(dp257
I0
g121
sI1
g114
sssI1
g114
sssI1
g114
sssssI1
(dp258
S'seriously'
p259
(dp260
I0
g114
sI1
g121
sssssI1
(dp261
g217
(dp262
I0
g121
sI1
g114
sssssI1
(dp263
S'isn'
p264
(dp265
I0
g121
sI1
(dp266
S'don'
p267
(dp268
I0
g121
sI1
g114
sssssssI1
(dp269
S'long'
p270
(dp271
I0
(dp272
S'leaving'
p273
(dp274
I0
(dp275
S'runs'
p276
(dp277
I0
(dp278
S'jerry'
p279
(dp280
I0
(dp281
S'worse'
p282
(dp283
I0
g121
sI1
g114
sssI1
g114
sssI1
g114
sssI1
g114
sssI1
g121
sssssI1
(dp284
S'supposed'
p285
(dp286
I0
(dp287
S'films'
p288
(dp289
I0
(dp290
g46
(dp291
I0
(dp292
g97
(dp293
I0
(dp294
S'head'
p295
(dp296
I0
(dp297
S'screenwriter'
p298
(dp299
I0
(dp300
S'supporting'
p301
(dp302
I0
(dp303
S'story'
p304
(dp305
I0
(dp306
S'1999'
p307
(dp308
I0
g114
sI1
g121
sssI1
(dp309
S'die'
p310
(dp311
I0
(dp312
S'talented'
p313
(dp314
I0
g121
sI1
g114
sssI1
g114
sssssI1
g121
sssI1
g114
sssI1
g121
sssI1
g121
sssI1
g114
sssI1
(dp315
S'boys'
p316
(dp317
I0
(dp318
S'joe'
p319
(dp320
I0
g121
sI1
(dp321
g191
(dp322
I0
g121
sI1
g114
sssssI1
g114
sssssI1
(dp323
S'impressive'
p324
(dp325
I0
(dp326
S'presented'
p327
(dp328
I0
g114
sI1
g121
sssI1
g121
sssssssI1
(dp329
S'predictable'
p330
(dp331
I0
(dp332
S'steven'
p333
(dp334
I0
(dp335
S'west'
p336
(dp337
I0
g121
sI1
(dp338
g165
(dp339
I0
g114
sI1
g121
sssssI1
g114
sssI1
(dp340
S'perfect'
p341
(dp342
I0
g114
sI1
g121
sssssssI1
(dp343
g64
(dp344
I0
(dp345
S'social'
p346
(dp347
I0
(dp348
S'kind'
p349
(dp350
I0
(dp351
S'fiction'
p352
(dp353
I0
(dp354
S'subtle'
p355
(dp356
I0
(dp357
g165
(dp358
I0
(dp359
S'picture'
p360
(dp361
I0
g114
sI1
(dp362
g295
(dp363
I0
(dp364
g144
(dp365
I0
g121
sI1
g114
sssI1
g114
sssssI1
(dp366
S'movie'
p367
(dp368
I0
g121
sI1
(dp369
S'turns'
p370
(dp371
I0
g114
sI1
g121
sssssssI1
g121
sssI1
g121
sssI1
g114
sssI1
g121
sssI1
g121
sssssI1
(dp372
g4
(dp373
I0
(dp374
g123
(dp375
I0
(dp376
S'script'
p377
(dp378
I0
(dp379
g70
(dp380
I0
(dp381
S'terrible'
p382
(dp383
I0
(dp384
g19
(dp385
I0
(dp386
S'potential'
p387
(dp388
I0
(dp389
S'mysterious'
p390
(dp391
I0
(dp392
S'audiences'
p393
(dp394
I0
(dp395
g217
(dp396
I0
(dp397
S'amazing'
p398
(dp399
I0
(dp400
g330
(dp401
I0
(dp402
S'chemistry'
p403
(dp404
I0
(dp405
S'understand'
p406
(dp407
I0
(dp408
S'attempt'
p409
(dp410
I0
(dp411
S'comic'
p412
(dp413
I0
(dp414
S'wouldn'
p415
(dp416
I0
(dp417
S'theater'
p418
(dp419
I0
(dp420
S'violence'
p421
(dp422
I0
(dp423
S'box'
p424
(dp425
I0
(dp426
S'plot'
p427
(dp428
I0
(dp429
S'characters'
p430
(dp431
I0
(dp432
S'half'
p433
(dp434
I0
(dp435
S'fans'
p436
(dp437
I0
(dp438
S'jay'
p439
(dp440
I0
g114
sI1
g121
sssI1
g121
sssI1
g121
sssI1
g121
sssI1
(dp441
S'camera'
p442
(dp443
I0
(dp444
g129
(dp445
I0
g114
sI1
(dp446
S'stars'
p447
(dp448
I0
g121
sI1
g114
sssssI1
g121
sssssI1
g114
sssI1
g121
sssI1
g114
sssI1
g114
sssI1
g121
sssI1
g114
sssI1
g121
sssI1
g121
sssI1
g114
sssI1
g121
sssI1
(dp449
S'boy'
p450
(dp451
I0
g114
sI1
g121
sssssI1
g121
sssI1
g121
sssI1
g114
sssI1
g121
sssI1
g114
sssI1
g114
sssI1
(dp452
S'charming'
p453
(dp454
I0
(dp455
S'usual'
p456
(dp457
I0
(dp458
S'master'
p459
(dp460
I0
(dp461
S'jones'
p462
(dp463
I0
(dp464
S'stone'
p465
(dp466
I0
g114
sI1
g121
sssI1
(dp467
S'humor'
p468
(dp469
I0
g114
sI1
g121
sssssI1
(dp470
g168
(dp471
I0
g121
sI1
g114
sssssI1
(dp472
S'production'
p473
(dp474
I0
g121
sI1
g114
sssssI1
(dp475
S'sequel'
p476
(dp477
I0
g121
sI1
g114
sssssssI1
(dp478
S'eddie'
p479
(dp480
I0
(dp481
g355
(dp482
I0
(dp483
g259
(dp484
I0
(dp485
S'touch'
p486
(dp487
I0
(dp488
S'road'
p489
(dp490
I0
(dp491
S'beautiful'
p492
(dp493
I0
(dp494
S'constantly'
p495
(dp496
I0
(dp497
S'king'
p498
(dp499
I0
(dp500
S'events'
p501
(dp502
I0
(dp503
S'manner'
p504
(dp505
I0
(dp506
g282
(dp507
I0
(dp508
S'guess'
p509
(dp510
I0
(dp511
g341
(dp512
I0
(dp513
S'oscar'
p514
(dp515
I0
(dp516
S'despite'
p517
(dp518
I0
(dp519
S'setting'
p520
(dp521
I0
(dp522
S'office'
p523
(dp524
I0
g114
sI1
(dp525
S'project'
p526
(dp527
I0
g121
sI1
g114
sssssI1
g121
sssI1
(dp528
S'starring'
p529
(dp530
I0
(dp531
g197
(dp532
I0
g121
sI1
g114
sssI1
g114
sssssI1
(dp533
S'cinematic'
p534
(dp535
I0
g121
sI1
g114
sssssI1
g121
sssI1
g114
sssI1
g114
sssI1
g121
sssI1
(dp536
S'parents'
p537
(dp538
I0
g121
sI1
g114
sssssI1
(dp539
g94
(dp540
I0
g121
sI1
g114
sssssI1
g121
sssI1
(dp541
g46
(dp542
I0
g121
sI1
g114
sssssI1
g114
sssI1
g121
sssI1
(dp543
S'apartment'
p544
(dp545
I0
g114
sI1
g121
sssssI1
(dp546
g141
(dp547
I0
g121
sI1
(dp548
g191
(dp549
I0
g114
sI1
g121
sssssssI1
g121
sssssI1
(dp550
S'rate'
p551
(dp552
I0
(dp553
S'tension'
p554
(dp555
I0
(dp556
S'tom'
p557
(dp558
I0
(dp559
S'rules'
p560
(dp561
I0
g114
sI1
(dp562
S'intended'
p563
(dp564
I0
g114
sI1
g121
sssssI1
(dp565
S'making'
p566
(dp567
I0
g114
sI1
(dp568
S'stuff'
p569
(dp570
I0
g121
sI1
g114
sssssssI1
(dp571
S'experience'
p572
(dp573
I0
g121
sI1
g114
sssssI1
(dp574
S'clever'
p575
(dp576
I0
g121
sI1
g114
ssssssss.