(dp0
S'bad'
p1
(dp2
I0
(dp3
S'great'
p4
(dp5
I0
(dp6
S'performance'
p7
(dp8
I0
(dp9
S'family'
p10
(dp11
I0
(dp12
S'will'
p13
(dp14
I0
(dp15
S'picture'
p16
(dp17
I0
(dp18
S'original'
p19
(dp20
I0
(dp21
S'scene'
p22
(dp23
I0
(dp24
S'plot'
p25
(dp26
I0
(dp27
S'hard'
p28
(dp29
I0
(dp30
S'guy'
p31
(dp32
I0
(dp33
S'director'
p34
(dp35
I0
(dp36
S'pretty'
p37
(dp38
I0
(dp39
S'years'
p40
(dp41
I0
(dp42
S'well'
p43
(dp44
I0
(dp45
S'star'
p46
(dp47
I0
(dp48
S'fact'
p49
(dp50
I0
(dp51
S'audience'
p52
(dp53
I0
S'neg'
p54
sI1
S'pos'
p55
sssI1
g55
sssI1
g55
sssI1
(dp56
S'john'
p57
(dp58
I0
g55
sI1
g54
sssssI1
g55
sssI1
g54
sssI1
(dp59
S'long'
p60
(dp61
I0
(dp62
S'life'
p63
(dp64
I0
(dp65
S'script'
p66
(dp67
I0
(dp68
S'good'
p69
(dp70
I0
(dp71
S'films'
p72
(dp73
I0
g54
sI1
g55
sssI1
g55
sssI1
(dp74
S'effects'
p75
(dp76
I0
g54
sI1
g55
sssssI1
g54
sssI1
g54
sssssI1
g55
sssI1
(dp77
S'special'
p78
(dp79
I0
g54
sI1
(dp80
S'didn'
p81
(dp82
I0
g54
sI1
g55
sssssssI1
(dp83
S'people'
p84
(dp85
I0
(dp86
S'scenes'
p87
(dp88
I0
g54
sI1
(dp89
g75
(dp90
I0
g54
sI1
g55
sssssI1
(dp91
g69
(dp92
I0
g54
sI1
(dp93
S'times'
p94
(dp95
I0
g55
sI1
g54
sssssssssI1
(dp96
S'isn'
p97
(dp98
I0
(dp99
S'thing'
p100
(dp101
I0
(dp102
g40
(dp103
I0
g55
sI1
(dp104
S'set'
p105
(dp106
I0
g55
sI1
g54
sssssI1
(dp107
S'man'
p108
(dp109
I0
g54
sI1
(dp110
S'comedy'
p111
(dp112
I0
g55
sI1
g54
sssssssI1
(dp113
g94
(dp114
I0
g54
sI1
(dp115
g81
(dp116
I0
g54
sI1
g55
sssssssssI1
(dp117
g46
(dp118
I0
g54
sI1
(dp119
g75
(dp120
I0
g55
sI1
g54
sssssssI1
(dp121
g66
(dp122
I0
(dp123
S'three'
p124
(dp125
I0
(dp126
S'character'
p127
(dp128
I0
(dp129
S'love'
p130
(dp131
I0
g54
sI1
g55
sssI1
g55
sssI1
g54
sssI1
(dp132
g31
(dp133
I0
g54
sI1
g55
sssssssI1
(dp134
S'minutes'
p135
(dp136
I0
(dp137
S'movie'
p138
(dp139
I0
(dp140
S'played'
p141
(dp142
I0
(dp143
g37
(dp144
I0
(dp145
g111
(dp146
I0
g55
sI1
(dp147
S'work'
p148
(dp149
I0
g54
sI1
g55
sssssI1
(dp150
S'action'
p151
(dp152
I0
g54
sI1
g55
sssssI1
(dp153
S'best'
p154
(dp155
I0
g54
sI1
(dp156
g57
(dp157
I0
g55
sI1
g54
sssssssI1
(dp158
S'job'
p159
(dp160
I0
(dp161
S'funny'
p162
(dp163
I0
(dp164
S'real'
p165
(dp166
I0
(dp167
g94
(dp168
I0
(dp169
g97
(dp170
I0
(dp171
S'making'
p172
(dp173
I0
(dp174
S'plays'
p175
(dp176
I0
(dp177
S'sense'
p178
(dp179
I0
(dp180
S'characters'
p181
(dp182
I0
(dp183
S'story'
p184
(dp185
I0
(dp186
g22
(dp187
I0
g55
sI1
(dp188
g111
(dp189
I0
g54
sI1
g55
sssssI1
(dp190
S'year'
p191
(dp192
I0
g54
sI1
g55
sssssI1
g54
sssI1
g55
sssI1
(dp193
g19
(dp194
I0
g54
sI1
g55
sssssI1
g55
sssI1
(dp195
g111
(dp196
I0
g54
sI1
(dp197
g22
(dp198
I0
g55
sI1
g54
sssssssI1
(dp199
S'actor'
p200
(dp201
I0
g55
sI1
g54
sssssI1
(dp202
g200
(dp203
I0
(dp204
g108
(dp205
I0
g54
sI1
(dp206
g84
(dp207
I0
g54
sI1
(dp208
g191
(dp209
I0
g55
sI1
g54
sssssssI1
(dp210
g154
(dp211
I0
g55
sI1
g54
sssssssI1
(dp212
g165
(dp213
I0
(dp214
S'bit'
p215
(dp216
I0
g54
sI1
(dp217
S'movies'
p218
(dp219
I0
g54
sI1
g55
sssssI1
(dp220
g94
(dp221
I0
g55
sI1
g54
sssssssI1
(dp222
g22
(dp223
I0
g55
sI1
(dp224
g31
(dp225
I0
(dp226
g111
(dp227
I0
g54
sI1
g55
sssI1
g55
sssssssssI1
(dp228
S'point'
p229
(dp230
I0
(dp231
g87
(dp232
I0
(dp233
g215
(dp234
I0
(dp235
g175
(dp236
I0
(dp237
g138
(dp238
I0
(dp239
S'men'
p240
(dp241
I0
g55
sI1
g54
sssI1
g54
sssI1
g55
sssI1
g55
sssI1
g55
sssI1
(dp242
g191
(dp243
I0
g54
sI1
(dp244
g40
(dp245
I0
g54
sI1
g55
sssssssssssI1
(dp246
S'american'
p247
(dp248
I0
(dp249
S'course'
p250
(dp251
I0
(dp252
S'high'
p253
(dp254
I0
(dp255
S'takes'
p256
(dp257
I0
(dp258
g63
(dp259
I0
(dp260
g78
(dp261
I0
(dp262
g16
(dp263
I0
(dp264
g191
(dp265
I0
g54
sI1
(dp266
g22
(dp267
I0
g55
sI1
g54
sssssI1
g55
sssI1
g55
sssI1
(dp268
g75
(dp269
I0
(dp270
S'interesting'
p271
(dp272
I0
g55
sI1
g54
sssI1
g54
sssssI1
(dp273
g138
(dp274
I0
(dp275
g111
(dp276
I0
g54
sI1
g55
sssI1
g55
sssssI1
g55
sssI1
(dp277
g52
(dp278
I0
(dp279
g181
(dp280
I0
(dp281
g94
(dp282
I0
(dp283
g31
(dp284
I0
g54
sI1
g55
sssI1
g55
sssI1
g54
sssI1
g55
sssssI1
(dp285
g87
(dp286
I0
(dp287
g72
(dp288
I0
g55
sI1
(dp289
g40
(dp290
I0
g54
sI1
g55
sssssI1
g55
sssssssI1
(dp291
g127
(dp292
I0
(dp293
g124
(dp294
I0
(dp295
S'lot'
p296
(dp297
I0
(dp298
g218
(dp299
I0
(dp300
g81
(dp301
I0
(dp302
g100
(dp303
I0
(dp304
g84
(dp305
I0
(dp306
g69
(dp307
I0
g55
sI1
(dp308
S'role'
p309
(dp310
I0
(dp311
g57
(dp312
I0
g54
sI1
g55
sssI1
g55
sssssI1
(dp313
g191
(dp314
I0
g54
sI1
g55
sssssI1
(dp315
S'film'
p316
(dp317
I0
g55
sI1
g54
sssssI1
g54
sssI1
(dp318
g215
(dp319
I0
g55
sI1
g54
sssssI1
(dp320
S'cast'
p321
(dp322
I0
g54
sI1
(dp323
g172
(dp324
I0
g55
sI1
(dp325
g22
(dp326
I0
g54
sI1
g55
sssssssssI1
g55
sssI1
(dp327
g37
(dp328
I0
(dp329
g69
(dp330
I0
(dp331
g247
(dp332
I0
(dp333
g94
(dp334
I0
(dp335
g181
(dp336
I0
(dp337
g309
(dp338
I0
g54
sI1
(dp339
g184
(dp340
I0
g54
sI1
(dp341
g40
(dp342
I0
g55
sI1
g54
sssssssI1
(dp343
g200
(dp344
I0
(dp345
g72
(dp346
I0
g54
sI1
g55
sssI1
g55
sssssI1
g55
sssI1
g55
sssI1
(dp347
g81
(dp348
I0
g55
sI1
(dp349
g60
(dp350
I0
g55
sI1
(dp351
g309
(dp352
I0
g55
sI1
g54
sssssssssI1
(dp353
g151
(dp354
I0
(dp355
g22
(dp356
I0
g55
sI1
(dp357
g19
(dp358
I0
g54
sI1
g55
sssssI1
(dp359
S'acting'
p360
(dp361
I0
(dp362
g111
(dp363
I0
g55
sI1
g54
sssI1
g54
sssssssssssI1
(dp364
g40
(dp365
I0
(dp366
g154
(dp367
I0
(dp368
g25
(dp369
I0
(dp370
S'series'
p371
(dp372
I0
(dp373
S'dialogue'
p374
(dp375
I0
(dp376
g97
(dp377
I0
(dp378
S'fun'
p379
(dp380
I0
(dp381
g72
(dp382
I0
g55
sI1
(dp383
S'woman'
p384
(dp385
I0
(dp386
g7
(dp387
I0
g55
sI1
(dp388
g57
(dp389
I0
g54
sI1
g55
sssssI1
g54
sssssI1
(dp390
g81
(dp391
I0
g54
sI1
g55
sssssI1
g55
sssI1
(dp392
g247
(dp393
I0
g54
sI1
g55
sssssI1
(dp394
g57
(dp395
I0
g54
sI1
g55
sssssI1
(dp396
g43
(dp397
I0
(dp398
g130
(dp399
I0
(dp400
S'young'
p401
(dp402
I0
(dp403
g46
(dp404
I0
(dp405
g172
(dp406
I0
(dp407
g87
(dp408
I0
g55
sI1
g54
sssI1
g55
sssI1
g54
sssI1
g54
sssI1
g54
sssI1
(dp409
g218
(dp410
I0
(dp411
g165
(dp412
I0
(dp413
g379
(dp414
I0
g54
sI1
g55
sssI1
g55
sssI1
(dp415
S'day'
p416
(dp417
I0
g55
sI1
g54
sssssssssI1
(dp418
g7
(dp419
I0
(dp420
g215
(dp421
I0
(dp422
g78
(dp423
I0
(dp424
g256
(dp425
I0
(dp426
g148
(dp427
I0
(dp428
S'wife'
p429
(dp430
I0
(dp431
S'watch'
p432
(dp433
I0
(dp434
g34
(dp435
I0
(dp436
g296
(dp437
I0
g54
sI1
g55
sssI1
(dp438
g75
(dp439
I0
g55
sI1
g54
sssssI1
g55
sssI1
g55
sssI1
(dp440
g43
(dp441
I0
g54
sI1
(dp442
g25
(dp443
I0
g55
sI1
g54
sssssssI1
(dp444
g296
(dp445
I0
(dp446
g31
(dp447
I0
g54
sI1
(dp448
g22
(dp449
I0
g55
sI1
g54
sssssI1
g55
sssssI1
g55
sssI1
(dp450
g384
(dp451
I0
g55
sI1
(dp452
g309
(dp453
I0
g54
sI1
g55
sssssssI1
(dp454
g63
(dp455
I0
(dp456
g43
(dp457
I0
(dp458
g218
(dp459
I0
g54
sI1
g55
sssI1
g55
sssI1
g55
sssssssI1
(dp460
g66
(dp461
I0
(dp462
g271
(dp463
I0
(dp464
g218
(dp465
I0
(dp466
g374
(dp467
I0
(dp468
g31
(dp469
I0
g55
sI1
(dp470
g7
(dp471
I0
g55
sI1
g54
sssssI1
(dp472
g154
(dp473
I0
g54
sI1
g55
sssssI1
(dp474
g321
(dp475
I0
(dp476
S'kind'
p477
(dp478
I0
g55
sI1
(dp479
g22
(dp480
I0
g55
sI1
g54
sssssI1
(dp481
g7
(dp482
I0
g54
sI1
g55
sssssssI1
g55
sssI1
(dp483
g141
(dp484
I0
(dp485
S'don'
p486
(dp487
I0
(dp488
g148
(dp489
I0
(dp490
g25
(dp491
I0
g54
sI1
(dp492
g81
(dp493
I0
g55
sI1
g54
sssssI1
g55
sssI1
g54
sssI1
g55
sssssssssI1
(dp494
g25
(dp495
I0
(dp496
g10
(dp497
I0
(dp498
S'things'
p499
(dp500
I0
(dp501
g72
(dp502
I0
(dp503
S'hollywood'
p504
(dp505
I0
(dp506
g84
(dp507
I0
(dp508
S'screen'
p509
(dp510
I0
(dp511
g256
(dp512
I0
(dp513
g165
(dp514
I0
(dp515
g247
(dp516
I0
(dp517
S'big'
p518
(dp519
I0
(dp520
g141
(dp521
I0
(dp522
g57
(dp523
I0
g54
sI1
(dp524
S'half'
p525
(dp526
I0
g54
sI1
g55
sssssI1
g55
sssI1
g54
sssI1
g55
sssI1
(dp527
g97
(dp528
I0
g55
sI1
g54
sssssI1
g54
sssI1
g54
sssI1
(dp529
g66
(dp530
I0
(dp531
g151
(dp532
I0
(dp533
g229
(dp534
I0
g55
sI1
(dp535
g22
(dp536
I0
g55
sI1
g54
sssssI1
g54
sssI1
(dp537
g94
(dp538
I0
g54
sI1
(dp539
g159
(dp540
I0
g54
sI1
g55
sssssssssI1
g54
sssI1
(dp541
g486
(dp542
I0
(dp543
g384
(dp544
I0
(dp545
g374
(dp546
I0
(dp547
g229
(dp548
I0
(dp549
g518
(dp550
I0
(dp551
g28
(dp552
I0
(dp553
S'actors'
p554
(dp555
I0
(dp556
g253
(dp557
I0
g54
sI1
g55
sssI1
g55
sssI1
g54
sssI1
g54
sssI1
(dp558
g75
(dp559
I0
g55
sI1
g54
sssssI1
g54
sssI1
(dp560
g46
(dp561
I0
(dp562
g229
(dp563
I0
g55
sI1
g54
sssI1
g54
sssssI1
(dp564
S'find'
p565
(dp566
I0
(dp567
S'black'
p568
(dp569
I0
(dp570
g159
(dp571
I0
(dp572
S'better'
p573
(dp574
I0
(dp575
g141
(dp576
I0
g54
sI1
g55
sssI1
(dp577
g127
(dp578
I0
g55
sI1
(dp579
g309
(dp580
I0
g54
sI1
g55
sssssssI1
g54
sssI1
g55
sssI1
(dp581
g525
(dp582
I0
g55
sI1
(dp583
g309
(dp584
I0
g55
sI1
g54
sssssssssssI1
(dp585
g43
(dp586
I0
(dp587
g94
(dp588
I0
(dp589
g46
(dp590
I0
(dp591
g28
(dp592
I0
g54
sI1
(dp593
g111
(dp594
I0
g55
sI1
g54
sssssI1
(dp595
g75
(dp596
I0
g55
sI1
g54
sssssI1
(dp597
g31
(dp598
I0
g55
sI1
g54
sssssI1
(dp599
S'help'
p600
(dp601
I0
(dp602
g200
(dp603
I0
(dp604
g184
(dp605
I0
(dp606
g34
(dp607
I0
g55
sI1
(dp608
g40
(dp609
I0
g54
sI1
g55
sssssI1
(dp610
g75
(dp611
I0
g54
sI1
(dp612
g309
(dp613
I0
g55
sI1
g54
sssssssI1
(dp614
g22
(dp615
I0
(dp616
g31
(dp617
I0
g55
sI1
g54
sssI1
g55
sssssI1
(dp618
g108
(dp619
I0
g55
sI1
(dp620
g568
(dp621
I0
g54
sI1
g55
sssssssssssI1
(dp622
g63
(dp623
I0
(dp624
g172
(dp625
I0
(dp626
g371
(dp627
I0
(dp628
g379
(dp629
I0
(dp630
g43
(dp631
I0
g54
sI1
(dp632
g40
(dp633
I0
g55
sI1
g54
sssssI1
g55
sssI1
g54
sssI1
(dp634
g309
(dp635
I0
g55
sI1
(dp636
g111
(dp637
I0
g54
sI1
g55
sssssssI1
(dp638
g130
(dp639
I0
g55
sI1
(dp640
g374
(dp641
I0
(dp642
g111
(dp643
I0
g55
sI1
(dp644
g309
(dp645
I0
g55
sI1
g54
sssssI1
g54
sssssssssI1
(dp646
g63
(dp647
I0
(dp648
S'money'
p649
(dp650
I0
(dp651
g316
(dp652
I0
g54
sI1
(dp653
g124
(dp654
I0
(dp655
g60
(dp656
I0
(dp657
g200
(dp658
I0
(dp659
g253
(dp660
I0
(dp661
g504
(dp662
I0
(dp663
g37
(dp664
I0
(dp665
g159
(dp666
I0
(dp667
g401
(dp668
I0
g54
sI1
(dp669
g84
(dp670
I0
(dp671
g16
(dp672
I0
g54
sI1
g55
sssI1
g55
sssssI1
g55
sssI1
(dp673
g250
(dp674
I0
(dp675
g84
(dp676
I0
g55
sI1
g54
sssI1
g55
sssssI1
g54
sssI1
(dp677
g97
(dp678
I0
g55
sI1
g54
sssssI1
g54
sssI1
(dp679
g172
(dp680
I0
(dp681
g509
(dp682
I0
(dp683
g130
(dp684
I0
g54
sI1
(dp685
g154
(dp686
I0
g55
sI1
g54
sssssI1
(dp687
g191
(dp688
I0
g55
sI1
g54
sssssI1
(dp689
g554
(dp690
I0
g55
sI1
g54
sssssssI1
(dp691
g178
(dp692
I0
g54
sI1
(dp693
g34
(dp694
I0
g55
sI1
g54
sssssssssI1
(dp695
g87
(dp696
I0
g54
sI1
(dp697
g130
(dp698
I0
g54
sI1
(dp699
g22
(dp700
I0
g54
sI1
g55
sssssssssI1
(dp701
g256
(dp702
I0
(dp703
g7
(dp704
I0
(dp705
g127
(dp706
I0
(dp707
S'going'
p708
(dp709
I0
(dp710
g568
(dp711
I0
(dp712
g13
(dp713
I0
g54
sI1
(dp714
g81
(dp715
I0
(dp716
g28
(dp717
I0
g55
sI1
g54
sssI1
g54
sssssI1
g55
sssI1
g54
sssI1
g54
sssI1
(dp718
g105
(dp719
I0
(dp720
g486
(dp721
I0
g55
sI1
(dp722
g309
(dp723
I0
(dp724
g191
(dp725
I0
g55
sI1
g54
sssI1
g54
sssssI1
g54
sssssI1
(dp726
g159
(dp727
I0
(dp728
S'doesn'
p729
(dp730
I0
(dp731
g477
(dp732
I0
(dp733
g135
(dp734
I0
(dp735
g57
(dp736
I0
g55
sI1
g54
sssI1
g54
sssI1
g55
sssI1
(dp737
g525
(dp738
I0
g55
sI1
g54
sssssI1
(dp739
g321
(dp740
I0
g54
sI1
(dp741
g7
(dp742
I0
g55
sI1
g54
ssssssssssssss.